; Function Attrs: mustprogress nounwind uwtable
define hidden void @_ZN14ShenandoahHeap25set_has_forwarded_objectsEb(ptr noundef nonnull align 8 dereferenceable(2657) %0, i1 noundef zeroext %1) local_unnamed_addr #1 align 2 {
  %3 = getelementptr inbounds i8, ptr %0, i64 769
  br i1 %1, label %.preheader, label %.preheader4

.preheader:                                       ; preds = %2, %6
  %4 = load volatile i8, ptr %3, align 1
  tail call void asm sideeffect "", "~{memory},~{dirflag},~{fpsr},~{flags}"() #26, !srcloc !14
  %5 = and i8 %4, 1
  %.not.i.i.i = icmp eq i8 %5, 0
  br i1 %.not.i.i.i, label %6, label %_ZN14ShenandoahHeap12set_gc_stateEjb.exit

6:                                                ; preds = %.preheader
  %7 = or disjoint i8 %4, 1
  %8 = tail call noundef i8 asm sideeffect "lock cmpxchgb $1,($3)", "={ax},q,{ax},r,~{cc},~{memory},~{dirflag},~{fpsr},~{flags}"(i8 %7, i8 %4, ptr nonnull %3) #26, !srcloc !20
  %9 = icmp eq i8 %8, %4
  br i1 %9, label %_ZN14ShenandoahHeap12set_gc_stateEjb.exit, label %.preheader, !llvm.loop !48

.preheader4:                                      ; preds = %2, %13
  %10 = load volatile i8, ptr %3, align 1
  tail call void asm sideeffect "", "~{memory},~{dirflag},~{fpsr},~{flags}"() #26, !srcloc !14
  %11 = and i8 %10, 1
  %12 = icmp eq i8 %11, 0
  br i1 %12, label %_ZN14ShenandoahHeap12set_gc_stateEjb.exit, label %13

13:                                               ; preds = %.preheader4
  %14 = and i8 %10, -2
  %15 = tail call noundef i8 asm sideeffect "lock cmpxchgb $1,($3)", "={ax},q,{ax},r,~{cc},~{memory},~{dirflag},~{fpsr},~{flags}"(i8 %14, i8 %10, ptr nonnull %3) #26, !srcloc !20
  %16 = icmp eq i8 %15, %10
  br i1 %16, label %_ZN14ShenandoahHeap12set_gc_stateEjb.exit, label %.preheader4, !llvm.loop !49

_ZN14ShenandoahHeap12set_gc_stateEjb.exit:        ; preds = %.preheader4, %13, %.preheader, %6
  %17 = getelementptr inbounds i8, ptr %0, i64 704
  store i8 1, ptr %17, align 8
  ret void
}